target datalayout = "e-m:e-p270:32:32-p271:32:32-p272:64:64-i64:64-i128:128-f80:128-n8:16:32:64-S128"
target triple = "x86_64-pc-linux-gnu"

@.str.57 = private unnamed_addr constant [18 x i8] c"base out of range\00", align 1

; Function Attrs: nounwind uwtable
define internal i32 @luaB_tonumber(ptr noundef %0) #0 {
  %2 = alloca i32, align 4
  %3 = alloca ptr, align 8
  %4 = alloca i32, align 4
  %5 = alloca i32, align 4
  %6 = alloca ptr, align 8
  %7 = alloca ptr, align 8
  %8 = alloca i64, align 8
  store ptr %0, ptr %3, align 8, !tbaa !4
  call void @llvm.lifetime.start.p0(i64 4, ptr %4) #5
  %9 = load ptr, ptr %3, align 8, !tbaa !4
  %10 = call i64 @luaL_optinteger(ptr noundef %9, i32 noundef 2, i64 noundef 10)
  %11 = trunc i64 %10 to i32
  store i32 %11, ptr %4, align 4, !tbaa !12
  %12 = load i32, ptr %4, align 4, !tbaa !12
  %13 = icmp eq i32 %12, 10
  br i1 %13, label %14, label %24

14:                                               ; preds = %1
  %15 = load ptr, ptr %3, align 8, !tbaa !4
  call void @luaL_checkany(ptr noundef %15, i32 noundef 1)
  %16 = load ptr, ptr %3, align 8, !tbaa !4
  %17 = call i32 @lua_isnumber(ptr noundef %16, i32 noundef 1)
  %18 = icmp ne i32 %17, 0
  br i1 %18, label %19, label %23

19:                                               ; preds = %14
  %20 = load ptr, ptr %3, align 8, !tbaa !4
  %21 = load ptr, ptr %3, align 8, !tbaa !4
  %22 = call double @lua_tonumber(ptr noundef %21, i32 noundef 1)
  call void @lua_pushnumber(ptr noundef %20, double noundef %22)
  store i32 1, ptr %2, align 4
  store i32 1, ptr %5, align 4
  br label %74

23:                                               ; preds = %14
  br label %72

24:                                               ; preds = %1
  call void @llvm.lifetime.start.p0(i64 8, ptr %6) #5
  %25 = load ptr, ptr %3, align 8, !tbaa !4
  %26 = call ptr @luaL_checklstring(ptr noundef %25, i32 noundef 1, ptr noundef null)
  store ptr %26, ptr %6, align 8, !tbaa !9
  call void @llvm.lifetime.start.p0(i64 8, ptr %7) #5
  call void @llvm.lifetime.start.p0(i64 8, ptr %8) #5
  %27 = load i32, ptr %4, align 4, !tbaa !12
  %28 = icmp sle i32 2, %27
  br i1 %28, label %29, label %32

29:                                               ; preds = %24
  %30 = load i32, ptr %4, align 4, !tbaa !12
  %31 = icmp sle i32 %30, 36
  br i1 %31, label %35, label %32

32:                                               ; preds = %29, %24
  %33 = load ptr, ptr %3, align 8, !tbaa !4
  %34 = call i32 @luaL_argerror(ptr noundef %33, i32 noundef 2, ptr noundef @.str.57)
  br label %35

35:                                               ; preds = %32, %29
  %36 = load ptr, ptr %6, align 8, !tbaa !9
  %37 = load i32, ptr %4, align 4, !tbaa !12
  %38 = call i64 @strtoul(ptr noundef %36, ptr noundef %7, i32 noundef %37) #5
  store i64 %38, ptr %8, align 8, !tbaa !14
  %39 = load ptr, ptr %6, align 8, !tbaa !9
  %40 = load ptr, ptr %7, align 8, !tbaa !9
  %41 = icmp ne ptr %39, %40
  br i1 %41, label %42, label %68

42:                                               ; preds = %35
  br label %43

43:                                               ; preds = %55, %42
  %44 = call ptr @__ctype_b_loc() #6
  %45 = load ptr, ptr %44, align 8, !tbaa !21
  %46 = load ptr, ptr %7, align 8, !tbaa !9
  %47 = load i8, ptr %46, align 1, !tbaa !20
  %48 = zext i8 %47 to i32
  %49 = sext i32 %48 to i64
  %50 = getelementptr inbounds i16, ptr %45, i64 %49
  %51 = load i16, ptr %50, align 2, !tbaa !23
  %52 = zext i16 %51 to i32
  %53 = and i32 %52, 8192
  %54 = icmp ne i32 %53, 0
  br i1 %54, label %55, label %58

55:                                               ; preds = %43
  %56 = load ptr, ptr %7, align 8, !tbaa !9
  %57 = getelementptr inbounds nuw i8, ptr %56, i32 1
  store ptr %57, ptr %7, align 8, !tbaa !9
  br label %43, !llvm.loop !25

58:                                               ; preds = %43
  %59 = load ptr, ptr %7, align 8, !tbaa !9
  %60 = load i8, ptr %59, align 1, !tbaa !20
  %61 = sext i8 %60 to i32
  %62 = icmp eq i32 %61, 0
  br i1 %62, label %63, label %67

63:                                               ; preds = %58
  %64 = load ptr, ptr %3, align 8, !tbaa !4
  %65 = load i64, ptr %8, align 8, !tbaa !14
  %66 = uitofp i64 %65 to double
  call void @lua_pushnumber(ptr noundef %64, double noundef %66)
  store i32 1, ptr %2, align 4
  store i32 1, ptr %5, align 4
  br label %69

67:                                               ; preds = %58
  br label %68

68:                                               ; preds = %67, %35
  store i32 0, ptr %5, align 4
  br label %69

69:                                               ; preds = %68, %63
  call void @llvm.lifetime.end.p0(i64 8, ptr %8) #5
  call void @llvm.lifetime.end.p0(i64 8, ptr %7) #5
  call void @llvm.lifetime.end.p0(i64 8, ptr %6) #5
  %70 = load i32, ptr %5, align 4
  switch i32 %70, label %74 [
    i32 0, label %71
  ]

71:                                               ; preds = %69
  br label %72

72:                                               ; preds = %71, %23
  %73 = load ptr, ptr %3, align 8, !tbaa !4
  call void @lua_pushnil(ptr noundef %73)
  store i32 1, ptr %2, align 4
  store i32 1, ptr %5, align 4
  br label %74

74:                                               ; preds = %72, %69, %19
  call void @llvm.lifetime.end.p0(i64 4, ptr %4) #5
  %75 = load i32, ptr %2, align 4
  ret i32 %75
}