; Function Attrs: nounwind uwtable
define internal noundef i32 @luaB_tonumber(ptr noundef %0) #0 {
  %2 = alloca ptr, align 8
  %3 = tail call i64 @luaL_optinteger(ptr noundef %0, i32 noundef 2, i64 noundef 10) #8
  %4 = trunc i64 %3 to i32
  %5 = icmp eq i32 %4, 10
  br i1 %5, label %6, label %10

6:                                                ; preds = %1
  tail call void @luaL_checkany(ptr noundef %0, i32 noundef 1) #8
  %7 = tail call i32 @lua_isnumber(ptr noundef %0, i32 noundef 1) #8
  %.not20 = icmp eq i32 %7, 0
  br i1 %.not20, label %32, label %8

8:                                                ; preds = %6
  %9 = tail call double @lua_tonumber(ptr noundef %0, i32 noundef 1) #8
  tail call void @lua_pushnumber(ptr noundef %0, double noundef %9) #8
  br label %33

10:                                               ; preds = %1
  %11 = tail call ptr @luaL_checklstring(ptr noundef %0, i32 noundef 1, ptr noundef null) #8
  call void @llvm.lifetime.start.p0(i64 8, ptr nonnull %2) #8
  %12 = add i32 %4, -2
  %or.cond = icmp ult i32 %12, 35
  br i1 %or.cond, label %15, label %13

13:                                               ; preds = %10
  %14 = tail call i32 @luaL_argerror(ptr noundef %0, i32 noundef 2, ptr noundef nonnull @.str.57) #8
  br label %15

15:                                               ; preds = %10, %13
  %16 = call i64 @strtoul(ptr noundef %11, ptr noundef nonnull %2, i32 noundef %4) #8
  %17 = load ptr, ptr %2, align 8, !tbaa !16
  %.not = icmp eq ptr %11, %17
  br i1 %.not, label %31, label %.preheader

.preheader:                                       ; preds = %15
  %18 = tail call ptr @__ctype_b_loc() #9
  %19 = load ptr, ptr %18, align 8, !tbaa !18
  br label %20

20:                                               ; preds = %20, %.preheader
  %21 = phi ptr [ %17, %.preheader ], [ %27, %20 ]
  %22 = load i8, ptr %21, align 1, !tbaa !15
  %23 = zext i8 %22 to i64
  %24 = getelementptr inbounds nuw i16, ptr %19, i64 %23
  %25 = load i16, ptr %24, align 2, !tbaa !20
  %26 = and i16 %25, 8192
  %.not19 = icmp eq i16 %26, 0
  %27 = getelementptr inbounds nuw i8, ptr %21, i64 1
  br i1 %.not19, label %28, label %20, !llvm.loop !22

28:                                               ; preds = %20
  %29 = icmp eq i8 %22, 0
  br i1 %29, label %.critedge, label %31

.critedge:                                        ; preds = %28
  %30 = uitofp i64 %16 to double
  tail call void @lua_pushnumber(ptr noundef %0, double noundef %30) #8
  call void @llvm.lifetime.end.p0(i64 8, ptr nonnull %2) #8
  br label %33

31:                                               ; preds = %15, %28
  call void @llvm.lifetime.end.p0(i64 8, ptr nonnull %2) #8
  br label %32

32:                                               ; preds = %31, %6
  tail call void @lua_pushnil(ptr noundef %0) #8
  br label %33

33:                                               ; preds = %.critedge, %32, %8
  ret i32 1
}